; Function Attrs: nounwind uwtable
define ptr @l_Array_foldlMUnsafe_fold___at___private_Lean_Elab_Print_0__Lean_Elab_Command_printStructure___spec__21(ptr noundef %0, ptr noundef readonly captures(none) %1, i64 noundef %2, i64 noundef %3, ptr noundef %4) local_unnamed_addr #0 {
  %.not34 = icmp eq i64 %2, %3
  br i1 %.not34, label %._crit_edge, label %.lr.ph

.lr.ph:                                           ; preds = %5
  %6 = getelementptr inbounds nuw i8, ptr %1, i64 24
  br label %7

7:                                                ; preds = %.lr.ph, %lean_dec.exit
  %.02036 = phi i64 [ %2, %.lr.ph ], [ %34, %lean_dec.exit ]
  %.02235 = phi ptr [ %4, %.lr.ph ], [ %.224, %lean_dec.exit ]
  %8 = getelementptr inbounds nuw [0 x ptr], ptr %6, i64 0, i64 %.02036
  %9 = load ptr, ptr %8, align 8, !tbaa !4
  %10 = ptrtoint ptr %9 to i64
  %11 = and i64 %10, 1
  %.not.i25 = icmp eq i64 %11, 0
  br i1 %.not.i25, label %12, label %lean_array_uget.exit.thread

12:                                               ; preds = %7
  %.val.i.i = load i32, ptr %9, align 4, !tbaa !8
  %13 = icmp sgt i32 %.val.i.i, 0
  br i1 %13, label %14, label %16, !prof !13

14:                                               ; preds = %12
  %15 = add nuw i32 %.val.i.i, 1
  store i32 %15, ptr %9, align 4, !tbaa !8
  br label %lean_array_uget.exit

16:                                               ; preds = %12
  %.not.i.i = icmp eq i32 %.val.i.i, 0
  br i1 %.not.i.i, label %lean_array_uget.exit, label %17

17:                                               ; preds = %16
  tail call void @lean_inc_ref_cold(ptr noundef nonnull %9) #5
  br label %lean_array_uget.exit

lean_array_uget.exit:                             ; preds = %14, %16, %17
  %18 = tail call zeroext i8 @lean_name_eq(ptr noundef nonnull %9, ptr noundef %0) #5
  %19 = add i64 %.02036, 1
  %20 = icmp eq i8 %18, 0
  br i1 %20, label %24, label %27

lean_array_uget.exit.thread:                      ; preds = %7
  %21 = tail call zeroext i8 @lean_name_eq(ptr noundef %9, ptr noundef %0) #5
  %22 = add i64 %.02036, 1
  %23 = icmp eq i8 %21, 0
  br i1 %23, label %24, label %lean_dec.exit

24:                                               ; preds = %lean_array_uget.exit.thread, %lean_array_uget.exit
  %25 = phi i64 [ %22, %lean_array_uget.exit.thread ], [ %19, %lean_array_uget.exit ]
  %26 = tail call ptr @lean_array_push(ptr noundef %.02235, ptr noundef %9) #5
  br label %lean_dec.exit

27:                                               ; preds = %lean_array_uget.exit
  %28 = load i32, ptr %9, align 4, !tbaa !8
  %29 = icmp sgt i32 %28, 1
  br i1 %29, label %30, label %32, !prof !13

30:                                               ; preds = %27
  %31 = add nsw i32 %28, -1
  store i32 %31, ptr %9, align 4, !tbaa !8
  br label %lean_dec.exit

32:                                               ; preds = %27
  %.not.i = icmp eq i32 %28, 0
  br i1 %.not.i, label %lean_dec.exit, label %33

33:                                               ; preds = %32
  tail call void @lean_dec_ref_cold(ptr noundef nonnull %9) #5
  br label %lean_dec.exit

lean_dec.exit:                                    ; preds = %lean_array_uget.exit.thread, %30, %32, %33, %24
  %34 = phi i64 [ %25, %24 ], [ %19, %33 ], [ %19, %32 ], [ %19, %30 ], [ %22, %lean_array_uget.exit.thread ]
  %.224 = phi ptr [ %26, %24 ], [ %.02235, %33 ], [ %.02235, %32 ], [ %.02235, %30 ], [ %.02235, %lean_array_uget.exit.thread ]
  %.not = icmp eq i64 %34, %3
  br i1 %.not, label %._crit_edge, label %7

._crit_edge:                                      ; preds = %lean_dec.exit, %5
  %.022.lcssa = phi ptr [ %4, %5 ], [ %.224, %lean_dec.exit ]
  ret ptr %.022.lcssa
}